; Function Attrs: mustprogress nofree norecurse nosync nounwind memory(readwrite, inaccessiblemem: none) uwtable
define noundef i32 @_ZN10duckdb_lz422LZ4_compress_withStateEPvPKcPci(ptr noundef %0, ptr noundef %1, ptr noundef %2, i32 noundef %3) local_unnamed_addr #1 {
  %5 = icmp ugt i32 %3, 2113929216
  br i1 %5, label %_ZN10duckdb_lz417LZ4_compressBoundEi.exit, label %6

6:                                                ; preds = %4
  %7 = udiv i32 %3, 255
  %8 = add nuw nsw i32 %3, 16
  %9 = add nuw nsw i32 %8, %7
  br label %_ZN10duckdb_lz417LZ4_compressBoundEi.exit

_ZN10duckdb_lz417LZ4_compressBoundEi.exit:        ; preds = %4, %6
  %10 = phi i32 [ %9, %6 ], [ 0, %4 ]
  %11 = tail call noundef i32 @_ZN10duckdb_lz426LZ4_compress_fast_extStateEPvPKcPciii(ptr noundef %0, ptr noundef %1, ptr noundef %2, i32 noundef %3, i32 noundef %10, i32 noundef 1)
  ret i32 %11
}